target datalayout = "e-m:e-p270:32:32-p271:32:32-p272:64:64-i64:64-i128:128-f80:128-n8:16:32:64-S128"
target triple = "x86_64-pc-linux-gnu"

; Function Attrs: mustprogress nounwind uwtable
define void @_Z8strncpyzPcPKcm(ptr noundef %0, ptr noundef %1, i64 noundef %2) #0 {
  %4 = alloca ptr, align 8
  %5 = alloca ptr, align 8
  %6 = alloca i64, align 8
  store ptr %0, ptr %4, align 8
  store ptr %1, ptr %5, align 8
  store i64 %2, ptr %6, align 8
  %7 = load i64, ptr %6, align 8
  %8 = icmp ugt i64 %7, 0
  br i1 %8, label %9, label %29

9:                                                ; preds = %3
  br label %10

10:                                               ; preds = %21, %9
  %11 = load i64, ptr %6, align 8
  %12 = add i64 %11, -1
  store i64 %12, ptr %6, align 8
  %13 = icmp ugt i64 %12, 0
  br i1 %13, label %14, label %19

14:                                               ; preds = %10
  %15 = load ptr, ptr %5, align 8
  %16 = load i8, ptr %15, align 1
  %17 = sext i8 %16 to i32
  %18 = icmp ne i32 %17, 0
  br label %19

19:                                               ; preds = %14, %10
  %20 = phi i1 [ false, %10 ], [ %18, %14 ]
  br i1 %20, label %21, label %27

21:                                               ; preds = %19
  %22 = load ptr, ptr %5, align 8
  %23 = getelementptr inbounds i8, ptr %22, i32 1
  store ptr %23, ptr %5, align 8
  %24 = load i8, ptr %22, align 1
  %25 = load ptr, ptr %4, align 8
  %26 = getelementptr inbounds i8, ptr %25, i32 1
  store ptr %26, ptr %4, align 8
  store i8 %24, ptr %25, align 1
  br label %10, !llvm.loop !4

27:                                               ; preds = %19
  %28 = load ptr, ptr %4, align 8
  store i8 0, ptr %28, align 1
  br label %29

29:                                               ; preds = %27, %3
  ret void
}