; Function Attrs: mustprogress nofree norecurse nosync nounwind memory(readwrite, inaccessiblemem: none) uwtable
define void @_Z8strncpyzPcPKcm(ptr nocapture noundef writeonly %0, ptr nocapture noundef readonly %1, i64 noundef %2) local_unnamed_addr #1 {
  %.not = icmp eq i64 %2, 0
  br i1 %.not, label %11, label %.preheader

.preheader:                                       ; preds = %3
  %4 = add i64 %2, -1
  %.not911 = icmp eq i64 %4, 0
  br i1 %.not911, label %.critedge, label %.lr.ph

.lr.ph:                                           ; preds = %.preheader, %7
  %5 = phi i64 [ %10, %7 ], [ %4, %.preheader ]
  %.0513 = phi ptr [ %8, %7 ], [ %1, %.preheader ]
  %.0612 = phi ptr [ %9, %7 ], [ %0, %.preheader ]
  %6 = load i8, ptr %.0513, align 1
  %.not10 = icmp eq i8 %6, 0
  br i1 %.not10, label %.critedge, label %7

7:                                                ; preds = %.lr.ph
  %8 = getelementptr inbounds i8, ptr %.0513, i64 1
  %9 = getelementptr inbounds i8, ptr %.0612, i64 1
  store i8 %6, ptr %.0612, align 1
  %10 = add i64 %5, -1
  %.not9 = icmp eq i64 %10, 0
  br i1 %.not9, label %.critedge, label %.lr.ph, !llvm.loop !4

.critedge:                                        ; preds = %.lr.ph, %7, %.preheader
  %.06.lcssa = phi ptr [ %0, %.preheader ], [ %9, %7 ], [ %.0612, %.lr.ph ]
  store i8 0, ptr %.06.lcssa, align 1
  br label %11

11:                                               ; preds = %.critedge, %3
  ret void
}